Microchip MPLAB XC8 Compiler V2.36

Linker command line:

-W-3 --edf=E:\Program Files (x86)\Microchip\xc8\v2.36\pic\dat\en_msgs.txt \
  -cn -h+dist/default/production\SmartRecycleBin.X.production.sym \
  --cmf=dist/default/production\SmartRecycleBin.X.production.cmf -z \
  -Q16F877A -oC:\Users\tuang\AppData\Local\Temp\xcAstlo.4 \
  -Mdist/default/production/SmartRecycleBin.X.production.map \
  --md=C:\Users\tuang\AppData\Local\Temp\xcAstlo.dat -E1 -ver=XC8 Compiler \
  --acfsm=1493 -ACODE=00h-07FFhx4 -ASTRCODE=00h-01FFFh -ASTRING=00h-0FFhx32 \
  -ACONST=00h-0FFhx32 -AENTRY=00h-0FFhx32 -ACOMMON=070h-07Fh \
  -ABANK0=020h-06Fh -ABANK1=0A0h-0EFh -ABANK2=0110h-016Fh \
  -ABANK3=0190h-01EFh -ARAM=020h-06Fh,0A0h-0EFh,0110h-016Fh,0190h-01EFh \
  -AABS1=020h-07Fh,0A0h-0EFh,0110h-016Fh,0190h-01EFh -ASFR0=00h-01Fh \
  -ASFR1=080h-09Fh -ASFR2=0100h-010Fh -ASFR3=0180h-018Fh \
  -ACONFIG=02007h-02007h -DCONFIG=2 -AIDLOC=02000h-02003h -DIDLOC=2 \
  -AEEDATA=00h-0FFh/02100h -peeprom_data=EEDATA -DEEDATA=2 -DCODE=2 \
  -DSTRCODE=2 -DSTRING=2 -DCONST=2 -DENTRY=2 \
  -preset_vec=00h,intentry,init,end_init -ppowerup=CODE -pcinit=CODE \
  -pfunctab=ENTRY -k C:\Users\tuang\AppData\Local\Temp\xcAstlo.o \
  dist/default/production\SmartRecycleBin.X.production.o 

Object code version is 3.11

Machine type is 16F877A



                Name                               Link     Load   Length Selector   Space Scale
C:\Users\tuang\AppData\Local\Temp\xcAstlo.o
                end_init                              0        0        3        0       0
                config                             2007     2007        1        0       4
dist/default/production\SmartRecycleBin.X.production.o
                cinit                               7FC      7FC        4      FF8       0
                config                             2007     2007        1        0       4
                text9                               68E      68E       1A      D1C       0
                text8                               747      747       B5      E8E       0
                text7                               6A8      6A8       31      D50       0
                text6                               65D      65D        D      CBA       0
                text5                               651      651        C      CA2       0
                text4                               64B      64B        6      C96       0
                text3                               6D9      6D9       6E      DB2       0
                text2                               678      678       16      CF0       0
                text1                               64A      64A        1      C94       0
                maintext                            66A      66A        E      CD4       0
                cstackCOMMON                         70       70        A       70       1

TOTAL           Name                               Link     Load   Length     Space
        CLASS   CODE           
                end_init                              0        0        3         0
                cinit                               7FC      7FC        4         0
                text9                               68E      68E       1A         0
                text8                               747      747       B5         0
                text7                               6A8      6A8       31         0
                text6                               65D      65D        D         0
                text5                               651      651        C         0
                text4                               64B      64B        6         0
                text3                               6D9      6D9       6E         0
                text2                               678      678       16         0
                text1                               64A      64A        1         0
                maintext                            66A      66A        E         0

        CLASS   STRCODE        

        CLASS   STRING         

        CLASS   CONST          

        CLASS   ENTRY          

        CLASS   COMMON         
                cstackCOMMON                         70       70        A         1

        CLASS   BANK0          

        CLASS   BANK1          

        CLASS   BANK2          

        CLASS   BANK3          

        CLASS   RAM            

        CLASS   ABS1           
                abs_s1                               7E       7E        2         1

        CLASS   SFR0           

        CLASS   SFR1           

        CLASS   SFR2           

        CLASS   SFR3           

        CLASS   CONFIG         
                config                             2007     2007        1         4

        CLASS   IDLOC          

        CLASS   EEDATA         

        CLASS   STACK          



SEGMENTS        Name                           Load    Length   Top    Selector   Space  Class     Delta

                reset_vec                      000000  000003  000003         0       0  CODE        2
                cstackCOMMON                   000070  00000A  00007A        70       1  COMMON      1
                text1                          00064A  000001  00064B       C94       0  CODE        2
                text4                          00064B  000006  000651       C96       0  CODE        2
                text5                          000651  00000C  00065D       CA2       0  CODE        2
                text6                          00065D  00000D  00066A       CBA       0  CODE        2
                maintext                       00066A  00000E  000678       CD4       0  CODE        2
                text2                          000678  000016  00068E       CF0       0  CODE        2
                text9                          00068E  00001A  0006A8       D1C       0  CODE        2
                text7                          0006A8  000031  0006D9       D50       0  CODE        2
                text3                          0006D9  00006E  000747       DB2       0  CODE        2
                text8                          000747  0000B5  0007FC       E8E       0  CODE        2
                cinit                          0007FC  000004  000800       FF8       0  CODE        2


UNUSED ADDRESS RANGES

        Name                Unused          Largest block    Delta
        BANK0            0020-006F             50           1
        BANK1            00A0-00EF             50           1
        BANK2            0110-016F             60           1
        BANK3            0190-01EF             60           1
        CODE             0003-0649            647           2
                         0800-1FFF            800
        COMMON           007A-007D              4           1
        CONST            0003-0649            100           2
                         0800-1FFF            100
        EEDATA           2100-21FF            100           2
        ENTRY            0003-0649            100           2
                         0800-1FFF            100
        IDLOC            2000-2003              4           2
        RAM              0020-006F             50           1
                         00A0-00EF             50
                         0110-016F             60
                         0190-01EF             60
        SFR0             0000-001F             20           1
        SFR1             0080-009F             20           1
        SFR2             0100-010F             10           1
        SFR3             0180-018F             10           1
        STRCODE          0003-0649            647           2
                         0800-1FFF           1800
        STRING           0003-0649            100           2
                         0800-1FFF            100

                                  Symbol Table

GPIO_Read@GPIO_Port       cstackCOMMON 0070
GPIO_Read@GPIO_State      cstackCOMMON 0074
GPIO_Read@Pin             cstackCOMMON 0072
GPIO_Toggle@GPIO_Port     cstackCOMMON 0076
GPIO_Toggle@Pin           cstackCOMMON 0078
GPIO_Write@GPIO_Port      cstackCOMMON 0070
GPIO_Write@GPIO_State     cstackCOMMON 0073
GPIO_Write@Pin            cstackCOMMON 0072
Timer_Delay@timer_counter cstackCOMMON 0075
Timer_Delay@value         cstackCOMMON 0071
_GPIO_Read                text9        068E
_GPIO_Toggle              text7        06A8
_GPIO_Write               text8        0747
_INTCON                   (abs)        000B
_Loop                     text2        0678
_MCU_Config               text1        064A
_OPTION_REG               (abs)        0081
_PORTA                    (abs)        0005
_PORTB                    (abs)        0006
_PORTC                    (abs)        0007
_PORTD                    (abs)        0008
_T1CON                    (abs)        0010
_T1OSCEN                  (abs)        0083
_T1SYNC                   (abs)        0082
_T2CKPS1                  (abs)        0091
_T2CON                    (abs)        0012
_TMR0                     (abs)        0001
_TMR0IF                   (abs)        005A
_TMR1CS                   (abs)        0081
_TMR1H                    (abs)        000F
_TMR1IF                   (abs)        0060
_TMR1L                    (abs)        000E
_TMR1ON                   (abs)        0080
_TMR2                     (abs)        0011
_TMR2IF                   (abs)        0061
_TMR2ON                   (abs)        0092
_TRISA                    (abs)        0085
_TRISB                    (abs)        0086
_TRISC                    (abs)        0087
_TRISD                    (abs)        0088
_TRISE                    (abs)        0089
_Timer0_BASE_Init         text6        065D
_Timer1_BASE_Init         text5        0651
_Timer2_BASE_Init         text4        064B
_Timer_Delay              text3        06D9
__Habs1                   abs1         0000
__Hbank0                  bank0        0000
__Hbank1                  bank1        0000
__Hbank2                  bank2        0000
__Hbank3                  bank3        0000
__Hcinit                  cinit        0800
__Hclrtext                clrtext      0000
__Hcode                   code         0000
__Hcommon                 common       0000
__Hconfig                 config       2008
__HcstackCOMMON           cstackCOMMON 0000
__Heeprom_data            eeprom_data  0000
__Hend_init               end_init     0003
__Hfunctab                functab      0000
__Hinit                   init         0000
__Hintentry               intentry     0000
__Hmaintext               maintext     0000
__Hpowerup                powerup      0000
__Hram                    ram          0000
__Hreset_vec              reset_vec    0000
__Hsfr0                   sfr0         0000
__Hsfr1                   sfr1         0000
__Hsfr2                   sfr2         0000
__Hsfr3                   sfr3         0000
__Hspace_0                (abs)        0800
__Hspace_1                (abs)        007A
__Hspace_2                (abs)        0000
__Hspace_3                (abs)        0000
__Hspace_4                (abs)        400F
__Hstack                  stack        0000
__Hstrings                strings      0000
__Htext                   text         0000
__Labs1                   abs1         0000
__Lbank0                  bank0        0000
__Lbank1                  bank1        0000
__Lbank2                  bank2        0000
__Lbank3                  bank3        0000
__Lcinit                  cinit        07FC
__Lclrtext                clrtext      0000
__Lcode                   code         0000
__Lcommon                 common       0000
__Lconfig                 config       0000
__LcstackCOMMON           cstackCOMMON 0000
__Leeprom_data            eeprom_data  0000
__Lend_init               end_init     0000
__Lfunctab                functab      0000
__Linit                   init         0000
__Lintentry               intentry     0000
__Lmaintext               maintext     0000
__Lpowerup                powerup      0000
__Lram                    ram          0000
__Lreset_vec              reset_vec    0000
__Lsfr0                   sfr0         0000
__Lsfr1                   sfr1         0000
__Lsfr2                   sfr2         0000
__Lsfr3                   sfr3         0000
__Lspace_0                (abs)        0000
__Lspace_1                (abs)        0000
__Lspace_2                (abs)        0000
__Lspace_3                (abs)        0000
__Lspace_4                (abs)        0000
__Lstack                  stack        0000
__Lstrings                strings      0000
__Ltext                   text         0000
__S0                      (abs)        0800
__S1                      (abs)        007A
__S3                      (abs)        0000
___int_sp                 stack        0000
___latbits                (abs)        0002
___sp                     stack        0000
___stackhi                (abs)        0000
___stacklo                (abs)        0000
__end_of_GPIO_Read        text9        06A8
__end_of_GPIO_Toggle      text7        06D9
__end_of_GPIO_Write       text8        07FC
__end_of_Loop             text2        068E
__end_of_MCU_Config       text1        064B
__end_of_Timer0_BASE_Init text6        066A
__end_of_Timer1_BASE_Init text5        065D
__end_of_Timer2_BASE_Init text4        0651
__end_of_Timer_Delay      text3        0747
__end_of__initialization  cinit        07FC
__end_of_main             maintext     0678
__initialization          cinit        07FC
__pcstackCOMMON           cstackCOMMON 0070
__pmaintext               maintext     066A
__ptext1                  text1        064A
__ptext2                  text2        0678
__ptext3                  text3        06D9
__ptext4                  text4        064B
__ptext5                  text5        0651
__ptext6                  text6        065D
__ptext7                  text7        06A8
__ptext8                  text8        0747
__ptext9                  text9        068E
_main                     maintext     066A
btemp                     (abs)        007E
end_of_initialization     cinit        07FC
intlevel0                 functab      0000
intlevel1                 functab      0000
intlevel2                 functab      0000
intlevel3                 functab      0000
intlevel4                 functab      0000
intlevel5                 functab      0000
reset_vec                 reset_vec    0000
start                     init         0000
start_initialization      cinit        07FC
wtemp0                    (abs)        007E


MODULE INFORMATION

Module		Function		Class		Link	Load	Size
Source/Header/Configuration.h
		_MCU_Config    		CODE           	064A	0000	1

Source/Header/Configuration.h estimated size: 1

shared
		__initialization		CODE           	07FC	0000	1

shared estimated size: 1

Source/Header/Timer.h
		_Timer0_BASE_Init		CODE           	065D	0000	13
		_Timer1_BASE_Init		CODE           	0651	0000	12
		_Timer_Delay   		CODE           	06D9	0000	110
		_Timer2_BASE_Init		CODE           	064B	0000	6

Source/Header/Timer.h estimated size: 141

Source/main.c
		_main          		CODE           	066A	0000	14
		_Loop          		CODE           	0678	0000	22

Source/main.c estimated size: 36

Source/Header/GPIO.h
		_GPIO_Toggle   		CODE           	06A8	0000	49
		_GPIO_Write    		CODE           	0747	0000	181
		_GPIO_Read     		CODE           	068E	0000	26

Source/Header/GPIO.h estimated size: 256

